; Function Attrs: nounwind uwtable
define internal fastcc noundef ptr @set_up(ptr noundef %0) unnamed_addr #0 {
  %2 = tail call noalias ptr @CRYPTO_zalloc(i64 noundef 96, ptr noundef nonnull @.str.14, i32 noundef 58) #5
  %3 = tail call i32 @test_ptr(ptr noundef nonnull @.str.14, i32 noundef 58, ptr noundef nonnull @.str.64, ptr noundef %2) #5
  %.not = icmp eq i32 %3, 0
  br i1 %.not, label %20, label %4

4:                                                ; preds = %1
  store ptr %0, ptr %2, align 8, !tbaa !47
  %5 = load ptr, ptr @libctx, align 8, !tbaa !15
  %6 = tail call ptr @OSSL_CMP_CTX_new(ptr noundef %5, ptr noundef null) #5
  %7 = getelementptr inbounds nuw i8, ptr %2, i64 8
  store ptr %6, ptr %7, align 8, !tbaa !36
  %8 = tail call i32 @test_ptr(ptr noundef nonnull @.str.14, i32 noundef 61, ptr noundef nonnull @.str.65, ptr noundef %6) #5
  %.not6 = icmp eq i32 %8, 0
  br i1 %.not6, label %tear_down.exit, label %20

tear_down.exit:                                   ; preds = %4
  %9 = load ptr, ptr %7, align 8, !tbaa !36
  tail call void @OSSL_CMP_CTX_free(ptr noundef %9) #5
  %10 = getelementptr inbounds nuw i8, ptr %2, i64 16
  %11 = load ptr, ptr %10, align 8, !tbaa !19
  tail call void @OSSL_CMP_MSG_free(ptr noundef %11) #5
  %12 = getelementptr inbounds nuw i8, ptr %2, i64 24
  %13 = load ptr, ptr %12, align 8, !tbaa !37
  tail call void @OSSL_CMP_PKISI_free(ptr noundef %13) #5
  %14 = getelementptr inbounds nuw i8, ptr %2, i64 40
  %15 = load ptr, ptr %14, align 8, !tbaa !38
  tail call void @CRYPTO_free(ptr noundef %15, ptr noundef nonnull @.str.14, i32 noundef 46) #5
  %16 = getelementptr inbounds nuw i8, ptr %2, i64 64
  %17 = load ptr, ptr %16, align 8, !tbaa !39
  tail call void @OPENSSL_sk_free(ptr noundef %17) #5
  %18 = getelementptr inbounds nuw i8, ptr %2, i64 72
  %19 = load ptr, ptr %18, align 8, !tbaa !40
  tail call void @OPENSSL_sk_free(ptr noundef %19) #5
  tail call void @CRYPTO_free(ptr noundef nonnull %2, ptr noundef nonnull @.str.14, i32 noundef 50) #5
  br label %20

20:                                               ; preds = %4, %1, %tear_down.exit
  %.0 = phi ptr [ null, %tear_down.exit ], [ null, %1 ], [ %2, %4 ]
  ret ptr %.0
}